target datalayout = "e-m:e-p270:32:32-p271:32:32-p272:64:64-i64:64-i128:128-f80:128-n8:16:32:64-S128"
target triple = "x86_64-pc-linux-gnu"

%struct.plugin_feature_t = type { ptr, ptr, i64 }

@plugin_type = dso_local constant [22 x i8] c"node_features/helpers\00", align 16
@helper_features = internal global ptr null, align 8
@.str.3 = private unnamed_addr constant [2 x i8] c",\00", align 1
@.str.28 = private unnamed_addr constant [11 x i8] c"rebootless\00", align 1
@.str.31 = private unnamed_addr constant [24 x i8] c"node_features_helpers.c\00", align 1
@__func__._feature_create = private unnamed_addr constant [16 x i8] c"_feature_create\00", align 1
@.str.33 = private unnamed_addr constant [62 x i8] c"feature \22%s\22 previously registered with different helper \22%s\22\00", align 1
@.str.34 = private unnamed_addr constant [60 x i8] c"%s: %s: feature \22%s\22 previously registered same helper \22%s\22\00", align 1
@__func__._feature_register = private unnamed_addr constant [18 x i8] c"_feature_register\00", align 1
@.str.35 = private unnamed_addr constant [41 x i8] c"%s: %s: Adding new feature \22%s\22 Flags=%s\00", align 1
@.str.36 = private unnamed_addr constant [7 x i8] c"(none)\00", align 1
@.str.37 = private unnamed_addr constant [8 x i8] c"unknown\00", align 1

; Function Attrs: nounwind uwtable
define internal ptr @_feature_flag2str(i64 noundef %0) #0 {
  %2 = alloca ptr, align 8
  %3 = alloca i64, align 8
  store i64 %0, ptr %3, align 8
  %4 = load i64, ptr %3, align 8
  %5 = and i64 %4, 1
  %6 = icmp ne i64 %5, 0
  br i1 %6, label %7, label %8

7:                                                ; preds = %1
  store ptr @.str.28, ptr %2, align 8
  br label %13

8:                                                ; preds = %1
  %9 = load i64, ptr %3, align 8
  %10 = icmp ne i64 %9, 0
  br i1 %10, label %12, label %11

11:                                               ; preds = %8
  store ptr @.str.36, ptr %2, align 8
  br label %13

12:                                               ; preds = %8
  store ptr @.str.37, ptr %2, align 8
  br label %13

13:                                               ; preds = %12, %11, %7
  %14 = load ptr, ptr %2, align 8
  ret ptr %14
}

; Function Attrs: nounwind uwtable
define internal ptr @_feature_create(ptr noundef %0, ptr noundef %1, i64 noundef %2) #0 {
  %4 = alloca ptr, align 8
  %5 = alloca ptr, align 8
  %6 = alloca i64, align 8
  %7 = alloca ptr, align 8
  store ptr %0, ptr %4, align 8
  store ptr %1, ptr %5, align 8
  store i64 %2, ptr %6, align 8
  call void @llvm.lifetime.start.p0(i64 8, ptr %7) #8
  %8 = call ptr @slurm_xcalloc(i64 noundef 1, i64 noundef 24, i1 noundef zeroext true, i1 noundef zeroext false, ptr noundef @.str.31, i32 noundef 170, ptr noundef @__func__._feature_create)
  store ptr %8, ptr %7, align 8
  %9 = load ptr, ptr %4, align 8
  %10 = call ptr @xstrdup(ptr noundef %9)
  %11 = load ptr, ptr %7, align 8
  %12 = getelementptr inbounds nuw %struct.plugin_feature_t, ptr %11, i32 0, i32 0
  store ptr %10, ptr %12, align 8
  %13 = load ptr, ptr %5, align 8
  %14 = call ptr @xstrdup(ptr noundef %13)
  %15 = load ptr, ptr %7, align 8
  %16 = getelementptr inbounds nuw %struct.plugin_feature_t, ptr %15, i32 0, i32 1
  store ptr %14, ptr %16, align 8
  %17 = load i64, ptr %6, align 8
  %18 = load ptr, ptr %7, align 8
  %19 = getelementptr inbounds nuw %struct.plugin_feature_t, ptr %18, i32 0, i32 2
  store i64 %17, ptr %19, align 8
  %20 = load ptr, ptr %7, align 8
  call void @llvm.lifetime.end.p0(i64 8, ptr %7) #8
  ret ptr %20
}

; Function Attrs: nounwind uwtable
define internal i32 @_feature_register(ptr noundef %0, ptr noundef %1, i64 noundef %2) #0 {
  %4 = alloca i32, align 4
  %5 = alloca ptr, align 8
  %6 = alloca ptr, align 8
  %7 = alloca i64, align 8
  %8 = alloca ptr, align 8
  %9 = alloca ptr, align 8
  %10 = alloca i32, align 4
  store ptr %0, ptr %5, align 8
  store ptr %1, ptr %6, align 8
  store i64 %2, ptr %7, align 8
  call void @llvm.lifetime.start.p0(i64 8, ptr %8) #8
  call void @llvm.lifetime.start.p0(i64 8, ptr %9) #8
  store ptr null, ptr %9, align 8
  %11 = load ptr, ptr @helper_features, align 8
  %12 = load ptr, ptr %5, align 8
  %13 = call ptr @list_find_first(ptr noundef %11, ptr noundef @_cmp_features, ptr noundef %12)
  store ptr %13, ptr %8, align 8
  %14 = load ptr, ptr %8, align 8
  %15 = icmp ne ptr %14, null
  br i1 %15, label %16, label %47

16:                                               ; preds = %3
  %17 = call zeroext i1 @running_in_slurmctld()
  br i1 %17, label %18, label %19

18:                                               ; preds = %16
  store i32 0, ptr %4, align 4
  store i32 1, ptr %10, align 4
  br label %71

19:                                               ; preds = %16
  %20 = load ptr, ptr %8, align 8
  %21 = getelementptr inbounds nuw %struct.plugin_feature_t, ptr %20, i32 0, i32 1
  %22 = load ptr, ptr %21, align 8
  %23 = load ptr, ptr %6, align 8
  %24 = call i32 @xstrcmp(ptr noundef %22, ptr noundef %23)
  %25 = icmp ne i32 %24, 0
  br i1 %25, label %26, label %32

26:                                               ; preds = %19
  %27 = load ptr, ptr %5, align 8
  %28 = load ptr, ptr %8, align 8
  %29 = getelementptr inbounds nuw %struct.plugin_feature_t, ptr %28, i32 0, i32 1
  %30 = load ptr, ptr %29, align 8
  %31 = call i32 (ptr, ...) @error(ptr noundef @.str.33, ptr noundef %27, ptr noundef %30)
  store i32 -1, ptr %4, align 4
  store i32 1, ptr %10, align 4
  br label %71

32:                                               ; preds = %19
  br label %33

33:                                               ; preds = %32
  br label %34

34:                                               ; preds = %33
  %35 = call i32 @get_log_level()
  %36 = icmp sge i32 %35, 5
  br i1 %36, label %37, label %42

37:                                               ; preds = %34
  %38 = load ptr, ptr %5, align 8
  %39 = load ptr, ptr %8, align 8
  %40 = getelementptr inbounds nuw %struct.plugin_feature_t, ptr %39, i32 0, i32 1
  %41 = load ptr, ptr %40, align 8
  call void (i32, ptr, ...) @log_var(i32 noundef 5, ptr noundef @.str.34, ptr noundef @plugin_type, ptr noundef @__func__._feature_register, ptr noundef %38, ptr noundef %41)
  br label %42

42:                                               ; preds = %37, %34
  br label %43

43:                                               ; preds = %42
  br label %44

44:                                               ; preds = %43
  br label %45

45:                                               ; preds = %44
  br label %46

46:                                               ; preds = %45
  store i32 0, ptr %4, align 4
  store i32 1, ptr %10, align 4
  br label %71

47:                                               ; preds = %3
  %48 = load ptr, ptr %5, align 8
  %49 = load ptr, ptr %6, align 8
  %50 = load i64, ptr %7, align 8
  %51 = call ptr @_feature_create(ptr noundef %48, ptr noundef %49, i64 noundef %50)
  store ptr %51, ptr %9, align 8
  br label %52

52:                                               ; preds = %47
  br label %53

53:                                               ; preds = %52
  %54 = call i32 @get_log_level()
  %55 = icmp sge i32 %54, 3
  br i1 %55, label %56, label %64

56:                                               ; preds = %53
  %57 = load ptr, ptr %9, align 8
  %58 = getelementptr inbounds nuw %struct.plugin_feature_t, ptr %57, i32 0, i32 0
  %59 = load ptr, ptr %58, align 8
  %60 = load ptr, ptr %9, align 8
  %61 = getelementptr inbounds nuw %struct.plugin_feature_t, ptr %60, i32 0, i32 2
  %62 = load i64, ptr %61, align 8
  %63 = call ptr @_feature_flag2str(i64 noundef %62)
  call void (i32, ptr, ...) @log_var(i32 noundef 3, ptr noundef @.str.35, ptr noundef @plugin_type, ptr noundef @__func__._feature_register, ptr noundef %59, ptr noundef %63)
  br label %64

64:                                               ; preds = %56, %53
  br label %65

65:                                               ; preds = %64
  br label %66

66:                                               ; preds = %65
  br label %67

67:                                               ; preds = %66
  br label %68

68:                                               ; preds = %67
  %69 = load ptr, ptr @helper_features, align 8
  %70 = load ptr, ptr %9, align 8
  call void @list_append(ptr noundef %69, ptr noundef %70)
  store i32 0, ptr %4, align 4
  store i32 1, ptr %10, align 4
  br label %71

71:                                               ; preds = %68, %46, %26, %18
  call void @llvm.lifetime.end.p0(i64 8, ptr %9) #8
  call void @llvm.lifetime.end.p0(i64 8, ptr %8) #8
  %72 = load i32, ptr %4, align 4
  ret i32 %72
}

; Function Attrs: nounwind uwtable
define internal zeroext i1 @_is_feature_valid(ptr noundef %0) #0 {
  %2 = alloca i1, align 1
  %3 = alloca ptr, align 8
  %4 = alloca i32, align 4
  %5 = alloca i32, align 4
  store ptr %0, ptr %3, align 8
  %6 = load ptr, ptr %3, align 8
  %7 = icmp ne ptr %6, null
  br i1 %7, label %8, label %14

8:                                                ; preds = %1
  %9 = load ptr, ptr %3, align 8
  %10 = getelementptr inbounds i8, ptr %9, i64 0
  %11 = load i8, ptr %10, align 1
  %12 = sext i8 %11 to i32
  %13 = icmp eq i32 %12, 0
  br i1 %13, label %14, label %15

14:                                               ; preds = %8, %1
  store i1 false, ptr %2, align 1
  br label %98

15:                                               ; preds = %8
  %16 = call ptr @__ctype_b_loc() #10
  %17 = load ptr, ptr %16, align 8
  %18 = load ptr, ptr %3, align 8
  %19 = getelementptr inbounds i8, ptr %18, i64 0
  %20 = load i8, ptr %19, align 1
  %21 = sext i8 %20 to i32
  %22 = sext i32 %21 to i64
  %23 = getelementptr inbounds i16, ptr %17, i64 %22
  %24 = load i16, ptr %23, align 2
  %25 = zext i16 %24 to i32
  %26 = and i32 %25, 1024
  %27 = icmp ne i32 %26, 0
  br i1 %27, label %41, label %28

28:                                               ; preds = %15
  %29 = load ptr, ptr %3, align 8
  %30 = getelementptr inbounds i8, ptr %29, i64 0
  %31 = load i8, ptr %30, align 1
  %32 = sext i8 %31 to i32
  %33 = icmp ne i32 %32, 95
  br i1 %33, label %34, label %41

34:                                               ; preds = %28
  %35 = load ptr, ptr %3, align 8
  %36 = getelementptr inbounds i8, ptr %35, i64 0
  %37 = load i8, ptr %36, align 1
  %38 = sext i8 %37 to i32
  %39 = icmp ne i32 %38, 61
  br i1 %39, label %40, label %41

40:                                               ; preds = %34
  store i1 false, ptr %2, align 1
  br label %98

41:                                               ; preds = %34, %28, %15
  call void @llvm.lifetime.start.p0(i64 4, ptr %4) #8
  store i32 1, ptr %4, align 4
  br label %42

42:                                               ; preds = %92, %41
  %43 = load ptr, ptr %3, align 8
  %44 = load i32, ptr %4, align 4
  %45 = sext i32 %44 to i64
  %46 = getelementptr inbounds i8, ptr %43, i64 %45
  %47 = load i8, ptr %46, align 1
  %48 = sext i8 %47 to i32
  %49 = icmp ne i32 %48, 0
  br i1 %49, label %51, label %50

50:                                               ; preds = %42
  store i32 2, ptr %5, align 4
  br label %95

51:                                               ; preds = %42
  %52 = call ptr @__ctype_b_loc() #10
  %53 = load ptr, ptr %52, align 8
  %54 = load ptr, ptr %3, align 8
  %55 = load i32, ptr %4, align 4
  %56 = sext i32 %55 to i64
  %57 = getelementptr inbounds i8, ptr %54, i64 %56
  %58 = load i8, ptr %57, align 1
  %59 = sext i8 %58 to i32
  %60 = sext i32 %59 to i64
  %61 = getelementptr inbounds i16, ptr %53, i64 %60
  %62 = load i16, ptr %61, align 2
  %63 = zext i16 %62 to i32
  %64 = and i32 %63, 8
  %65 = icmp ne i32 %64, 0
  br i1 %65, label %91, label %66

66:                                               ; preds = %51
  %67 = load ptr, ptr %3, align 8
  %68 = load i32, ptr %4, align 4
  %69 = sext i32 %68 to i64
  %70 = getelementptr inbounds i8, ptr %67, i64 %69
  %71 = load i8, ptr %70, align 1
  %72 = sext i8 %71 to i32
  %73 = icmp ne i32 %72, 95
  br i1 %73, label %74, label %91

74:                                               ; preds = %66
  %75 = load ptr, ptr %3, align 8
  %76 = load i32, ptr %4, align 4
  %77 = sext i32 %76 to i64
  %78 = getelementptr inbounds i8, ptr %75, i64 %77
  %79 = load i8, ptr %78, align 1
  %80 = sext i8 %79 to i32
  %81 = icmp ne i32 %80, 46
  br i1 %81, label %82, label %91

82:                                               ; preds = %74
  %83 = load ptr, ptr %3, align 8
  %84 = load i32, ptr %4, align 4
  %85 = sext i32 %84 to i64
  %86 = getelementptr inbounds i8, ptr %83, i64 %85
  %87 = load i8, ptr %86, align 1
  %88 = sext i8 %87 to i32
  %89 = icmp ne i32 %88, 61
  br i1 %89, label %90, label %91

90:                                               ; preds = %82
  store i1 false, ptr %2, align 1
  store i32 1, ptr %5, align 4
  br label %95

91:                                               ; preds = %82, %74, %66, %51
  br label %92

92:                                               ; preds = %91
  %93 = load i32, ptr %4, align 4
  %94 = add nsw i32 %93, 1
  store i32 %94, ptr %4, align 4
  br label %42, !llvm.loop !24

95:                                               ; preds = %90, %50
  call void @llvm.lifetime.end.p0(i64 4, ptr %4) #8
  %96 = load i32, ptr %5, align 4
  switch i32 %96, label %100 [
    i32 2, label %97
    i32 1, label %98
  ]

97:                                               ; preds = %95
  store i1 true, ptr %2, align 1
  br label %98

98:                                               ; preds = %97, %95, %40, %14
  %99 = load i1, ptr %2, align 1
  ret i1 %99

100:                                              ; preds = %95
  unreachable
}

; Function Attrs: nounwind uwtable
define internal i32 @_handle_config_features(ptr noundef %0, i32 noundef %1) #0 {
  %3 = alloca i32, align 4
  %4 = alloca ptr, align 8
  %5 = alloca i32, align 4
  %6 = alloca i32, align 4
  %7 = alloca i32, align 4
  %8 = alloca ptr, align 8
  %9 = alloca ptr, align 8
  %10 = alloca ptr, align 8
  %11 = alloca ptr, align 8
  store ptr %0, ptr %4, align 8
  store i32 %1, ptr %5, align 4
  call void @llvm.lifetime.start.p0(i64 4, ptr %6) #8
  store i32 0, ptr %6, align 4
  br label %12

12:                                               ; preds = %55, %2
  %13 = load i32, ptr %6, align 4
  %14 = load i32, ptr %5, align 4
  %15 = icmp slt i32 %13, %14
  br i1 %15, label %17, label %16

16:                                               ; preds = %12
  store i32 2, ptr %7, align 4
  br label %58

17:                                               ; preds = %12
  call void @llvm.lifetime.start.p0(i64 8, ptr %8) #8
  %18 = load ptr, ptr %4, align 8
  %19 = load i32, ptr %6, align 4
  %20 = sext i32 %19 to i64
  %21 = getelementptr inbounds ptr, ptr %18, i64 %20
  %22 = load ptr, ptr %21, align 8
  store ptr %22, ptr %8, align 8
  call void @llvm.lifetime.start.p0(i64 8, ptr %9) #8
  call void @llvm.lifetime.start.p0(i64 8, ptr %10) #8
  call void @llvm.lifetime.start.p0(i64 8, ptr %11) #8
  %23 = load ptr, ptr %8, align 8
  %24 = getelementptr inbounds nuw %struct.plugin_feature_t, ptr %23, i32 0, i32 0
  %25 = load ptr, ptr %24, align 8
  %26 = call ptr @xstrdup(ptr noundef %25)
  store ptr %26, ptr %9, align 8
  %27 = load ptr, ptr %9, align 8
  %28 = call ptr @strtok_r(ptr noundef %27, ptr noundef @.str.3, ptr noundef %11) #8
  store ptr %28, ptr %10, align 8
  br label %29

29:                                               ; preds = %49, %17
  %30 = load ptr, ptr %10, align 8
  %31 = icmp ne ptr %30, null
  br i1 %31, label %32, label %51

32:                                               ; preds = %29
  %33 = load ptr, ptr %10, align 8
  %34 = call zeroext i1 @_is_feature_valid(ptr noundef %33)
  br i1 %34, label %37, label %35

35:                                               ; preds = %32
  %36 = call ptr @__errno_location() #10
  store i32 2029, ptr %36, align 4
  call void @slurm_xfree(ptr noundef %9)
  store i32 -1, ptr %3, align 4
  store i32 1, ptr %7, align 4
  br label %52

37:                                               ; preds = %32
  %38 = load ptr, ptr %10, align 8
  %39 = load ptr, ptr %8, align 8
  %40 = getelementptr inbounds nuw %struct.plugin_feature_t, ptr %39, i32 0, i32 1
  %41 = load ptr, ptr %40, align 8
  %42 = load ptr, ptr %8, align 8
  %43 = getelementptr inbounds nuw %struct.plugin_feature_t, ptr %42, i32 0, i32 2
  %44 = load i64, ptr %43, align 8
  %45 = call i32 @_feature_register(ptr noundef %38, ptr noundef %41, i64 noundef %44)
  %46 = icmp ne i32 %45, 0
  br i1 %46, label %47, label %48

47:                                               ; preds = %37
  call void @slurm_xfree(ptr noundef %9)
  store i32 -1, ptr %3, align 4
  store i32 1, ptr %7, align 4
  br label %52

48:                                               ; preds = %37
  br label %49

49:                                               ; preds = %48
  %50 = call ptr @strtok_r(ptr noundef null, ptr noundef @.str.3, ptr noundef %11) #8
  store ptr %50, ptr %10, align 8
  br label %29, !llvm.loop !18

51:                                               ; preds = %29
  call void @slurm_xfree(ptr noundef %9)
  store i32 0, ptr %7, align 4
  br label %52

52:                                               ; preds = %51, %47, %35
  call void @llvm.lifetime.end.p0(i64 8, ptr %11) #8
  call void @llvm.lifetime.end.p0(i64 8, ptr %10) #8
  call void @llvm.lifetime.end.p0(i64 8, ptr %9) #8
  call void @llvm.lifetime.end.p0(i64 8, ptr %8) #8
  %53 = load i32, ptr %7, align 4
  switch i32 %53, label %58 [
    i32 0, label %54
  ]

54:                                               ; preds = %52
  br label %55

55:                                               ; preds = %54
  %56 = load i32, ptr %6, align 4
  %57 = add nsw i32 %56, 1
  store i32 %57, ptr %6, align 4
  br label %12, !llvm.loop !19

58:                                               ; preds = %52, %16
  call void @llvm.lifetime.end.p0(i64 4, ptr %6) #8
  %59 = load i32, ptr %7, align 4
  switch i32 %59, label %63 [
    i32 2, label %60
    i32 1, label %61
  ]

60:                                               ; preds = %58
  store i32 0, ptr %3, align 4
  br label %61

61:                                               ; preds = %60, %58
  %62 = load i32, ptr %3, align 4
  ret i32 %62

63:                                               ; preds = %58
  unreachable
}